target datalayout = "e-m:e-p270:32:32-p271:32:32-p272:64:64-i64:64-i128:128-f80:128-n8:16:32:64-S128"
target triple = "x86_64-unknown-linux-gnu"

%class.btSimulationIslandManager = type <{ ptr, %class.btUnionFind, %class.btAlignedObjectArray.0, %class.btAlignedObjectArray.4, i8, [7 x i8] }>
%class.btUnionFind = type { %class.btAlignedObjectArray }
%class.btAlignedObjectArray = type <{ %class.btAlignedAllocator, [3 x i8], i32, i32, [4 x i8], ptr, i8, [7 x i8] }>
%class.btAlignedAllocator = type { i8 }
%class.btAlignedObjectArray.0 = type <{ %class.btAlignedAllocator.1, [3 x i8], i32, i32, [4 x i8], ptr, i8, [7 x i8] }>
%class.btAlignedAllocator.1 = type { i8 }
%class.btAlignedObjectArray.4 = type <{ %class.btAlignedAllocator.5, [3 x i8], i32, i32, [4 x i8], ptr, i8, [7 x i8] }>
%class.btAlignedAllocator.5 = type { i8 }
%class.btVector3 = type { [4 x float] }
%class.btCollisionWorld = type <{ ptr, %class.btAlignedObjectArray.4, ptr, %struct.btDispatcherInfo, ptr, ptr, i8, [7 x i8] }>
%struct.btDispatcherInfo = type <{ float, i32, i32, float, i8, [7 x i8], ptr, i8, i8, i8, i8, float, i8, [3 x i8], float, i8, [7 x i8] }>
%class.btCollisionObject = type <{ ptr, %class.btTransform, %class.btTransform, %class.btVector3, %class.btVector3, %class.btVector3, i32, float, ptr, ptr, ptr, ptr, i32, i32, i32, i32, i32, float, float, float, float, float, float, float, i32, [4 x i8], ptr, i32, i32, i32, float, float, float, i32, [4 x i8], %class.btAlignedObjectArray.9, i32, %class.btVector3, [4 x i8] }>
%class.btTransform = type { %class.btMatrix3x3, %class.btVector3 }
%class.btMatrix3x3 = type { [3 x %class.btVector3] }
%class.btAlignedObjectArray.9 = type <{ %class.btAlignedAllocator.10, [3 x i8], i32, i32, [4 x i8], ptr, i8, [7 x i8] }>
%class.btAlignedAllocator.10 = type { i8 }

; Function Attrs: mustprogress uwtable
define dso_local void @_ZN25btSimulationIslandManager13initUnionFindEi(ptr noundef nonnull align 8 dereferenceable(105) %this, i32 noundef %n) #2 align 2 {
entry:
  %this.addr = alloca ptr, align 8
  %n.addr = alloca i32, align 4
  store ptr %this, ptr %this.addr, align 8
  store i32 %n, ptr %n.addr, align 4
  %this1 = load ptr, ptr %this.addr, align 8
  %m_unionFind = getelementptr inbounds %class.btSimulationIslandManager, ptr %this1, i32 0, i32 1
  %0 = load i32, ptr %n.addr, align 4
  call void @_ZN11btUnionFind5resetEi(ptr noundef nonnull align 8 dereferenceable(32) %m_unionFind, i32 noundef %0)
  ret void
}

; Function Attrs: mustprogress nounwind uwtable
define linkonce_odr dso_local void @_ZN17btCollisionObject14setHitFractionEf(ptr noundef nonnull align 8 dereferenceable(372) %this, float noundef %hitFraction) #1 comdat align 2 {
entry:
  %this.addr = alloca ptr, align 8
  %hitFraction.addr = alloca float, align 4
  store ptr %this, ptr %this.addr, align 8
  store float %hitFraction, ptr %hitFraction.addr, align 4
  %this1 = load ptr, ptr %this.addr, align 8
  %0 = load float, ptr %hitFraction.addr, align 4
  %m_hitFraction = getelementptr inbounds %class.btCollisionObject, ptr %this1, i32 0, i32 30
  store float %0, ptr %m_hitFraction, align 4
  ret void
}

; Function Attrs: mustprogress nounwind uwtable
define linkonce_odr dso_local void @_ZN17btCollisionObject14setCompanionIdEi(ptr noundef nonnull align 8 dereferenceable(372) %this, i32 noundef %id) #1 comdat align 2 {
entry:
  %this.addr = alloca ptr, align 8
  %id.addr = alloca i32, align 4
  store ptr %this, ptr %this.addr, align 8
  store i32 %id, ptr %id.addr, align 4
  %this1 = load ptr, ptr %this.addr, align 8
  %0 = load i32, ptr %id.addr, align 4
  %m_companionId = getelementptr inbounds %class.btCollisionObject, ptr %this1, i32 0, i32 14
  store i32 %0, ptr %m_companionId, align 8
  ret void
}

; Function Attrs: mustprogress nounwind uwtable
define linkonce_odr dso_local void @_ZN17btCollisionObject12setIslandTagEi(ptr noundef nonnull align 8 dereferenceable(372) %this, i32 noundef %tag) #1 comdat align 2 {
entry:
  %this.addr = alloca ptr, align 8
  %tag.addr = alloca i32, align 4
  store ptr %this, ptr %this.addr, align 8
  store i32 %tag, ptr %tag.addr, align 4
  %this1 = load ptr, ptr %this.addr, align 8
  %0 = load i32, ptr %tag.addr, align 4
  %m_islandTag1 = getelementptr inbounds %class.btCollisionObject, ptr %this1, i32 0, i32 13
  store i32 %0, ptr %m_islandTag1, align 4
  ret void
}

; Function Attrs: mustprogress nounwind uwtable
define linkonce_odr dso_local noundef zeroext i1 @_ZNK17btCollisionObject25isStaticOrKinematicObjectEv(ptr noundef nonnull align 8 dereferenceable(372) %this) #1 comdat align 2 {
entry:
  %this.addr = alloca ptr, align 8
  store ptr %this, ptr %this.addr, align 8
  %this1 = load ptr, ptr %this.addr, align 8
  %m_collisionFlags = getelementptr inbounds %class.btCollisionObject, ptr %this1, i32 0, i32 12
  %0 = load i32, ptr %m_collisionFlags, align 8
  %and = and i32 %0, 3
  %cmp = icmp ne i32 %and, 0
  ret i1 %cmp
}

; Function Attrs: mustprogress nounwind uwtable
define linkonce_odr dso_local noundef nonnull align 8 dereferenceable(8) ptr @_ZN20btAlignedObjectArrayIP17btCollisionObjectEixEi(ptr noundef nonnull align 8 dereferenceable(25) %this, i32 noundef %n) #1 comdat align 2 {
entry:
  %this.addr = alloca ptr, align 8
  %n.addr = alloca i32, align 4
  store ptr %this, ptr %this.addr, align 8
  store i32 %n, ptr %n.addr, align 4
  %this1 = load ptr, ptr %this.addr, align 8
  %m_data = getelementptr inbounds %class.btAlignedObjectArray.4, ptr %this1, i32 0, i32 5
  %0 = load ptr, ptr %m_data, align 8
  %1 = load i32, ptr %n.addr, align 4
  %idxprom = sext i32 %1 to i64
  %arrayidx = getelementptr inbounds ptr, ptr %0, i64 %idxprom
  ret ptr %arrayidx
}

; Function Attrs: mustprogress nounwind uwtable
define linkonce_odr dso_local noundef i32 @_ZNK20btAlignedObjectArrayIP17btCollisionObjectE4sizeEv(ptr noundef nonnull align 8 dereferenceable(25) %this) #1 comdat align 2 {
entry:
  %this.addr = alloca ptr, align 8
  store ptr %this, ptr %this.addr, align 8
  %this1 = load ptr, ptr %this.addr, align 8
  %m_size = getelementptr inbounds %class.btAlignedObjectArray.4, ptr %this1, i32 0, i32 2
  %0 = load i32, ptr %m_size, align 4
  ret i32 %0
}

; Function Attrs: mustprogress nounwind uwtable
define linkonce_odr dso_local noundef nonnull align 8 dereferenceable(25) ptr @_ZN16btCollisionWorld23getCollisionObjectArrayEv(ptr noundef nonnull align 8 dereferenceable(121) %this) #1 comdat align 2 {
entry:
  %this.addr = alloca ptr, align 8
  store ptr %this, ptr %this.addr, align 8
  %this1 = load ptr, ptr %this.addr, align 8
  %m_collisionObjects = getelementptr inbounds %class.btCollisionWorld, ptr %this1, i32 0, i32 1
  ret ptr %m_collisionObjects
}

; Function Attrs: mustprogress uwtable
define dso_local void @_ZN25btSimulationIslandManager21updateActivationStateEP16btCollisionWorldP12btDispatcher(ptr noundef nonnull align 8 dereferenceable(105) %this, ptr noundef %colWorld, ptr noundef %dispatcher) unnamed_addr #2 align 2 {
entry:
  %this.addr = alloca ptr, align 8
  %colWorld.addr = alloca ptr, align 8
  %dispatcher.addr = alloca ptr, align 8
  %index = alloca i32, align 4
  %i = alloca i32, align 4
  %collisionObject = alloca ptr, align 8
  store ptr %this, ptr %this.addr, align 8
  store ptr %colWorld, ptr %colWorld.addr, align 8
  store ptr %dispatcher, ptr %dispatcher.addr, align 8
  %this1 = load ptr, ptr %this.addr, align 8
  store i32 0, ptr %index, align 4
  store i32 0, ptr %i, align 4
  br label %for.cond

for.cond:                                         ; preds = %for.inc, %entry
  %0 = load i32, ptr %i, align 4
  %1 = load ptr, ptr %colWorld.addr, align 8
  %call = call noundef nonnull align 8 dereferenceable(25) ptr @_ZN16btCollisionWorld23getCollisionObjectArrayEv(ptr noundef nonnull align 8 dereferenceable(121) %1)
  %call2 = call noundef i32 @_ZNK20btAlignedObjectArrayIP17btCollisionObjectE4sizeEv(ptr noundef nonnull align 8 dereferenceable(25) %call)
  %cmp = icmp slt i32 %0, %call2
  br i1 %cmp, label %for.body, label %for.end

for.body:                                         ; preds = %for.cond
  %2 = load ptr, ptr %colWorld.addr, align 8
  %call3 = call noundef nonnull align 8 dereferenceable(25) ptr @_ZN16btCollisionWorld23getCollisionObjectArrayEv(ptr noundef nonnull align 8 dereferenceable(121) %2)
  %3 = load i32, ptr %i, align 4
  %call4 = call noundef nonnull align 8 dereferenceable(8) ptr @_ZN20btAlignedObjectArrayIP17btCollisionObjectEixEi(ptr noundef nonnull align 8 dereferenceable(25) %call3, i32 noundef %3)
  %4 = load ptr, ptr %call4, align 8
  store ptr %4, ptr %collisionObject, align 8
  %5 = load ptr, ptr %collisionObject, align 8
  %call5 = call noundef zeroext i1 @_ZNK17btCollisionObject25isStaticOrKinematicObjectEv(ptr noundef nonnull align 8 dereferenceable(372) %5)
  br i1 %call5, label %if.end, label %if.then

if.then:                                          ; preds = %for.body
  %6 = load ptr, ptr %collisionObject, align 8
  %7 = load i32, ptr %index, align 4
  %inc = add nsw i32 %7, 1
  store i32 %inc, ptr %index, align 4
  call void @_ZN17btCollisionObject12setIslandTagEi(ptr noundef nonnull align 8 dereferenceable(372) %6, i32 noundef %7)
  br label %if.end

if.end:                                           ; preds = %if.then, %for.body
  %8 = load ptr, ptr %collisionObject, align 8
  call void @_ZN17btCollisionObject14setCompanionIdEi(ptr noundef nonnull align 8 dereferenceable(372) %8, i32 noundef -1)
  %9 = load ptr, ptr %collisionObject, align 8
  call void @_ZN17btCollisionObject14setHitFractionEf(ptr noundef nonnull align 8 dereferenceable(372) %9, float noundef 1.000000e+00)
  br label %for.inc

for.inc:                                          ; preds = %if.end
  %10 = load i32, ptr %i, align 4
  %inc6 = add nsw i32 %10, 1
  store i32 %inc6, ptr %i, align 4
  br label %for.cond, !llvm.loop !7

for.end:                                          ; preds = %for.cond
  %11 = load i32, ptr %index, align 4
  call void @_ZN25btSimulationIslandManager13initUnionFindEi(ptr noundef nonnull align 8 dereferenceable(105) %this1, i32 noundef %11)
  %12 = load ptr, ptr %dispatcher.addr, align 8
  %13 = load ptr, ptr %colWorld.addr, align 8
  call void @_ZN25btSimulationIslandManager10findUnionsEP12btDispatcherP16btCollisionWorld(ptr noundef nonnull align 8 dereferenceable(105) %this1, ptr noundef %12, ptr noundef %13)
  ret void
}