; Function Attrs: mustprogress uwtable
define dso_local void @_ZN25btSimulationIslandManager21updateActivationStateEP16btCollisionWorldP12btDispatcher(ptr noundef nonnull align 8 dereferenceable(105) %this, ptr nocapture noundef readonly %colWorld, ptr nocapture readnone %dispatcher) unnamed_addr #0 align 2 {
entry:
  %m_size.i = getelementptr inbounds i8, ptr %colWorld, i64 12
  %0 = load i32, ptr %m_size.i, align 4
  %cmp10 = icmp sgt i32 %0, 0
  br i1 %cmp10, label %for.body.lr.ph, label %for.end

for.body.lr.ph:                                   ; preds = %entry
  %m_data.i = getelementptr inbounds i8, ptr %colWorld, i64 24
  br label %for.body

for.body:                                         ; preds = %for.body.lr.ph, %if.end
  %indvars.iv = phi i64 [ 0, %for.body.lr.ph ], [ %indvars.iv.next, %if.end ]
  %index.012 = phi i32 [ 0, %for.body.lr.ph ], [ %index.1, %if.end ]
  %1 = load ptr, ptr %m_data.i, align 8
  %arrayidx.i = getelementptr inbounds ptr, ptr %1, i64 %indvars.iv
  %2 = load ptr, ptr %arrayidx.i, align 8
  %m_collisionFlags.i = getelementptr inbounds i8, ptr %2, i64 224
  %3 = load i32, ptr %m_collisionFlags.i, align 8
  %and.i = and i32 %3, 3
  %cmp.i.not = icmp eq i32 %and.i, 0
  br i1 %cmp.i.not, label %if.then, label %if.end

if.then:                                          ; preds = %for.body
  %inc = add nsw i32 %index.012, 1
  %m_islandTag1.i = getelementptr inbounds i8, ptr %2, i64 228
  store i32 %index.012, ptr %m_islandTag1.i, align 4
  br label %if.end

if.end:                                           ; preds = %if.then, %for.body
  %index.1 = phi i32 [ %index.012, %for.body ], [ %inc, %if.then ]
  %m_companionId.i = getelementptr inbounds i8, ptr %2, i64 232
  store i32 -1, ptr %m_companionId.i, align 8
  %m_hitFraction.i = getelementptr inbounds i8, ptr %2, i64 300
  store float 1.000000e+00, ptr %m_hitFraction.i, align 4
  %indvars.iv.next = add nuw nsw i64 %indvars.iv, 1
  %4 = load i32, ptr %m_size.i, align 4
  %5 = sext i32 %4 to i64
  %cmp = icmp slt i64 %indvars.iv.next, %5
  br i1 %cmp, label %for.body, label %for.end, !llvm.loop !8

for.end:                                          ; preds = %if.end, %entry
  %index.0.lcssa = phi i32 [ 0, %entry ], [ %index.1, %if.end ]
  %m_unionFind.i = getelementptr inbounds i8, ptr %this, i64 8
  tail call void @_ZN11btUnionFind5resetEi(ptr noundef nonnull align 8 dereferenceable(32) %m_unionFind.i, i32 noundef %index.0.lcssa)
  tail call void @_ZN25btSimulationIslandManager10findUnionsEP12btDispatcherP16btCollisionWorld(ptr noundef nonnull align 8 dereferenceable(105) %this, ptr poison, ptr noundef nonnull %colWorld)
  ret void
}